target datalayout = "e-m:e-p270:32:32-p271:32:32-p272:64:64-i64:64-i128:128-f80:128-n8:16:32:64-S128"
target triple = "x86_64-unknown-linux-gnu"

%"class.std::basic_istream" = type { ptr, i64, %"class.std::basic_ios" }
%"class.std::basic_ios" = type { %"class.std::ios_base", ptr, i8, i8, ptr, ptr, ptr, ptr }
%"class.std::ios_base" = type { ptr, i64, i64, i32, i32, i32, ptr, %"struct.std::ios_base::_Words", [8 x %"struct.std::ios_base::_Words"], i32, ptr, %"class.std::locale" }
%"struct.std::ios_base::_Words" = type { ptr, i64 }
%"class.std::locale" = type { ptr }
%"class.std::basic_ostream" = type { ptr, %"class.std::basic_ios" }
%class.veloxtpFlexLexer = type <{ %class.FlexLexer.base, i32, i32, [4 x i8], ptr, %"class.std::basic_istream", %"class.std::basic_ostream", i8, [3 x i8], i32, ptr, i32, i32, i32, [4 x i8], i64, i64, ptr, i32, [4 x i8], ptr, ptr, ptr, ptr, ptr, i32, i32, i32, i32, i32, i32, i32, [4 x i8] }>
%class.FlexLexer.base = type <{ ptr, ptr, i32, i32, i32 }>
%class.FlexLexer = type <{ ptr, ptr, i32, i32, i32, [4 x i8] }>

; Function Attrs: mustprogress nounwind uwtable
define linkonce_odr void @_ZN9FlexLexerD2Ev(ptr noundef nonnull align 8 dereferenceable(28) %this) unnamed_addr #4 comdat align 2 {
entry:
  %this.addr = alloca ptr, align 8
  store ptr %this, ptr %this.addr, align 8
  ret void
}

; Function Attrs: mustprogress nounwind uwtable
define void @_ZN16veloxtpFlexLexer11ctor_commonEv(ptr noundef nonnull align 8 dereferenceable(732) %this) #4 align 2 {
entry:
  %this.addr = alloca ptr, align 8
  store ptr %this, ptr %this.addr, align 8
  %this1 = load ptr, ptr %this.addr, align 8
  %yy_c_buf_p = getelementptr inbounds %class.veloxtpFlexLexer, ptr %this1, i32 0, i32 10
  store ptr null, ptr %yy_c_buf_p, align 8
  %yy_init = getelementptr inbounds %class.veloxtpFlexLexer, ptr %this1, i32 0, i32 11
  store i32 0, ptr %yy_init, align 8
  %yy_start = getelementptr inbounds %class.veloxtpFlexLexer, ptr %this1, i32 0, i32 12
  store i32 0, ptr %yy_start, align 4
  %yy_flex_debug = getelementptr inbounds %class.FlexLexer, ptr %this1, i32 0, i32 4
  store i32 0, ptr %yy_flex_debug, align 8
  %yylineno = getelementptr inbounds %class.FlexLexer, ptr %this1, i32 0, i32 3
  store i32 1, ptr %yylineno, align 4
  %yy_did_buffer_switch_on_eof = getelementptr inbounds %class.veloxtpFlexLexer, ptr %this1, i32 0, i32 13
  store i32 0, ptr %yy_did_buffer_switch_on_eof, align 8
  %yy_looking_for_trail_begin = getelementptr inbounds %class.veloxtpFlexLexer, ptr %this1, i32 0, i32 27
  store i32 0, ptr %yy_looking_for_trail_begin, align 8
  %yy_more_flag = getelementptr inbounds %class.veloxtpFlexLexer, ptr %this1, i32 0, i32 28
  store i32 0, ptr %yy_more_flag, align 4
  %yy_more_len = getelementptr inbounds %class.veloxtpFlexLexer, ptr %this1, i32 0, i32 29
  store i32 0, ptr %yy_more_len, align 8
  %yy_prev_more_offset = getelementptr inbounds %class.veloxtpFlexLexer, ptr %this1, i32 0, i32 31
  store i32 0, ptr %yy_prev_more_offset, align 8
  %yy_more_offset = getelementptr inbounds %class.veloxtpFlexLexer, ptr %this1, i32 0, i32 30
  store i32 0, ptr %yy_more_offset, align 4
  %yy_start_stack_depth = getelementptr inbounds %class.veloxtpFlexLexer, ptr %this1, i32 0, i32 2
  store i32 0, ptr %yy_start_stack_depth, align 8
  %yy_start_stack_ptr = getelementptr inbounds %class.veloxtpFlexLexer, ptr %this1, i32 0, i32 1
  store i32 0, ptr %yy_start_stack_ptr, align 4
  %yy_start_stack = getelementptr inbounds %class.veloxtpFlexLexer, ptr %this1, i32 0, i32 4
  store ptr null, ptr %yy_start_stack, align 8
  %yy_buffer_stack = getelementptr inbounds %class.veloxtpFlexLexer, ptr %this1, i32 0, i32 17
  store ptr null, ptr %yy_buffer_stack, align 8
  %yy_buffer_stack_top = getelementptr inbounds %class.veloxtpFlexLexer, ptr %this1, i32 0, i32 15
  store i64 0, ptr %yy_buffer_stack_top, align 8
  %yy_buffer_stack_max = getelementptr inbounds %class.veloxtpFlexLexer, ptr %this1, i32 0, i32 16
  store i64 0, ptr %yy_buffer_stack_max, align 8
  %yy_state_buf = getelementptr inbounds %class.veloxtpFlexLexer, ptr %this1, i32 0, i32 21
  store ptr null, ptr %yy_state_buf, align 8
  ret void
}

; Function Attrs: mustprogress nounwind uwtable
define linkonce_odr void @_ZN9FlexLexerC2Ev(ptr noundef nonnull align 8 dereferenceable(28) %this) unnamed_addr #4 comdat align 2 {
entry:
  %this.addr = alloca ptr, align 8
  store ptr %this, ptr %this.addr, align 8
  %this1 = load ptr, ptr %this.addr, align 8
  store ptr getelementptr inbounds ({ [13 x ptr] }, ptr @_ZTV9FlexLexer, i32 0, i32 0, i32 2), ptr %this1, align 8
  ret void
}

; Function Attrs: mustprogress uwtable
define void @_ZN16veloxtpFlexLexerC2ERSiRSo(ptr noundef nonnull align 8 dereferenceable(732) %this, ptr noundef nonnull align 8 dereferenceable(16) %arg_yyin, ptr noundef nonnull align 8 dereferenceable(8) %arg_yyout) unnamed_addr #5 align 2 personality ptr @__gxx_personality_v0 {
entry:
  %this.addr = alloca ptr, align 8
  %arg_yyin.addr = alloca ptr, align 8
  %arg_yyout.addr = alloca ptr, align 8
  %exn.slot = alloca ptr, align 8
  %ehselector.slot = alloca i32, align 4
  store ptr %this, ptr %this.addr, align 8
  store ptr %arg_yyin, ptr %arg_yyin.addr, align 8
  store ptr %arg_yyout, ptr %arg_yyout.addr, align 8
  %this1 = load ptr, ptr %this.addr, align 8
  call void @_ZN9FlexLexerC2Ev(ptr noundef nonnull align 8 dereferenceable(28) %this1) #3
  store ptr getelementptr inbounds ({ [17 x ptr] }, ptr @_ZTV16veloxtpFlexLexer, i32 0, i32 0, i32 2), ptr %this1, align 8
  %yyin = getelementptr inbounds %class.veloxtpFlexLexer, ptr %this1, i32 0, i32 5
  %0 = load ptr, ptr %arg_yyin.addr, align 8
  %vtable = load ptr, ptr %0, align 8
  %vbase.offset.ptr = getelementptr i8, ptr %vtable, i64 -24
  %vbase.offset = load i64, ptr %vbase.offset.ptr, align 8
  %add.ptr = getelementptr inbounds i8, ptr %0, i64 %vbase.offset
  %call = invoke noundef ptr @_ZNKSt9basic_iosIcSt11char_traitsIcEE5rdbufEv(ptr noundef nonnull align 8 dereferenceable(264) %add.ptr)
          to label %invoke.cont unwind label %lpad

invoke.cont:                                      ; preds = %entry
  invoke void @_ZNSiC1EPSt15basic_streambufIcSt11char_traitsIcEE(ptr noundef nonnull align 8 dereferenceable(16) %yyin, ptr noundef %call)
          to label %invoke.cont2 unwind label %lpad

invoke.cont2:                                     ; preds = %invoke.cont
  %yyout = getelementptr inbounds %class.veloxtpFlexLexer, ptr %this1, i32 0, i32 6
  %1 = load ptr, ptr %arg_yyout.addr, align 8
  %vtable3 = load ptr, ptr %1, align 8
  %vbase.offset.ptr4 = getelementptr i8, ptr %vtable3, i64 -24
  %vbase.offset5 = load i64, ptr %vbase.offset.ptr4, align 8
  %add.ptr6 = getelementptr inbounds i8, ptr %1, i64 %vbase.offset5
  %call9 = invoke noundef ptr @_ZNKSt9basic_iosIcSt11char_traitsIcEE5rdbufEv(ptr noundef nonnull align 8 dereferenceable(264) %add.ptr6)
          to label %invoke.cont8 unwind label %lpad7

invoke.cont8:                                     ; preds = %invoke.cont2
  invoke void @_ZNSoC1EPSt15basic_streambufIcSt11char_traitsIcEE(ptr noundef nonnull align 8 dereferenceable(8) %yyout, ptr noundef %call9)
          to label %invoke.cont10 unwind label %lpad7

invoke.cont10:                                    ; preds = %invoke.cont8
  invoke void @_ZN16veloxtpFlexLexer11ctor_commonEv(ptr noundef nonnull align 8 dereferenceable(732) %this1)
          to label %invoke.cont12 unwind label %lpad11

invoke.cont12:                                    ; preds = %invoke.cont10
  ret void

lpad:                                             ; preds = %invoke.cont, %entry
  %2 = landingpad { ptr, i32 }
          cleanup
  %3 = extractvalue { ptr, i32 } %2, 0
  store ptr %3, ptr %exn.slot, align 8
  %4 = extractvalue { ptr, i32 } %2, 1
  store i32 %4, ptr %ehselector.slot, align 4
  br label %ehcleanup13

lpad7:                                            ; preds = %invoke.cont8, %invoke.cont2
  %5 = landingpad { ptr, i32 }
          cleanup
  %6 = extractvalue { ptr, i32 } %5, 0
  store ptr %6, ptr %exn.slot, align 8
  %7 = extractvalue { ptr, i32 } %5, 1
  store i32 %7, ptr %ehselector.slot, align 4
  br label %ehcleanup

lpad11:                                           ; preds = %invoke.cont10
  %8 = landingpad { ptr, i32 }
          cleanup
  %9 = extractvalue { ptr, i32 } %8, 0
  store ptr %9, ptr %exn.slot, align 8
  %10 = extractvalue { ptr, i32 } %8, 1
  store i32 %10, ptr %ehselector.slot, align 4
  call void @_ZNSoD1Ev(ptr noundef nonnull align 8 dereferenceable(8) %yyout) #3
  br label %ehcleanup

ehcleanup:                                        ; preds = %lpad11, %lpad7
  call void @_ZNSiD1Ev(ptr noundef nonnull align 8 dereferenceable(16) %yyin) #3
  br label %ehcleanup13

ehcleanup13:                                      ; preds = %ehcleanup, %lpad
  call void @_ZN9FlexLexerD2Ev(ptr noundef nonnull align 8 dereferenceable(28) %this1) #3
  br label %eh.resume

eh.resume:                                        ; preds = %ehcleanup13
  %exn = load ptr, ptr %exn.slot, align 8
  %sel = load i32, ptr %ehselector.slot, align 4
  %lpad.val = insertvalue { ptr, i32 } poison, ptr %exn, 0
  %lpad.val14 = insertvalue { ptr, i32 } %lpad.val, i32 %sel, 1
  resume { ptr, i32 } %lpad.val14
}