; Function Attrs: mustprogress uwtable
define void @_ZN16veloxtpFlexLexerC2ERSiRSo(ptr noundef nonnull align 8 dereferenceable(732) %this, ptr noundef nonnull align 8 dereferenceable(16) %arg_yyin, ptr noundef nonnull align 8 dereferenceable(8) %arg_yyout) unnamed_addr #4 align 2 personality ptr @__gxx_personality_v0 {
entry:
  store ptr getelementptr inbounds ({ [17 x ptr] }, ptr @_ZTV16veloxtpFlexLexer, i64 0, i32 0, i64 2), ptr %this, align 8
  %yyin = getelementptr inbounds i8, ptr %this, i64 48
  %vtable = load ptr, ptr %arg_yyin, align 8
  %vbase.offset.ptr = getelementptr i8, ptr %vtable, i64 -24
  %vbase.offset = load i64, ptr %vbase.offset.ptr, align 8
  %add.ptr = getelementptr inbounds i8, ptr %arg_yyin, i64 %vbase.offset
  %call = tail call noundef ptr @_ZNKSt9basic_iosIcSt11char_traitsIcEE5rdbufEv(ptr noundef nonnull align 8 dereferenceable(264) %add.ptr)
  tail call void @_ZNSiC1EPSt15basic_streambufIcSt11char_traitsIcEE(ptr noundef nonnull align 8 dereferenceable(16) %yyin, ptr noundef %call)
  %vtable3 = load ptr, ptr %arg_yyout, align 8
  %vbase.offset.ptr4 = getelementptr i8, ptr %vtable3, i64 -24
  %vbase.offset5 = load i64, ptr %vbase.offset.ptr4, align 8
  %add.ptr6 = getelementptr inbounds i8, ptr %arg_yyout, i64 %vbase.offset5
  %call9 = invoke noundef ptr @_ZNKSt9basic_iosIcSt11char_traitsIcEE5rdbufEv(ptr noundef nonnull align 8 dereferenceable(264) %add.ptr6)
          to label %invoke.cont8 unwind label %lpad7

invoke.cont8:                                     ; preds = %entry
  %yyout = getelementptr inbounds i8, ptr %this, i64 328
  invoke void @_ZNSoC1EPSt15basic_streambufIcSt11char_traitsIcEE(ptr noundef nonnull align 8 dereferenceable(8) %yyout, ptr noundef %call9)
          to label %invoke.cont10 unwind label %lpad7

invoke.cont10:                                    ; preds = %invoke.cont8
  %yy_c_buf_p.i = getelementptr inbounds i8, ptr %this, i64 608
  %yylineno.i = getelementptr inbounds i8, ptr %this, i64 20
  tail call void @llvm.memset.p0.i64(ptr noundef nonnull align 8 dereferenceable(16) %yy_c_buf_p.i, i8 0, i64 16, i1 false)
  %yy_did_buffer_switch_on_eof.i = getelementptr inbounds i8, ptr %this, i64 624
  store i32 0, ptr %yy_did_buffer_switch_on_eof.i, align 8
  %yy_looking_for_trail_begin.i = getelementptr inbounds i8, ptr %this, i64 712
  store <4 x i32> <i32 1, i32 0, i32 0, i32 0>, ptr %yylineno.i, align 4
  %yy_start_stack.i = getelementptr inbounds i8, ptr %this, i64 40
  store ptr null, ptr %yy_start_stack.i, align 8
  %yy_buffer_stack_top.i = getelementptr inbounds i8, ptr %this, i64 632
  %yy_state_buf.i = getelementptr inbounds i8, ptr %this, i64 672
  store ptr null, ptr %yy_state_buf.i, align 8
  tail call void @llvm.memset.p0.i64(ptr noundef nonnull align 8 dereferenceable(24) %yy_buffer_stack_top.i, i8 0, i64 24, i1 false)
  tail call void @llvm.memset.p0.i64(ptr noundef nonnull align 8 dereferenceable(20) %yy_looking_for_trail_begin.i, i8 0, i64 20, i1 false)
  ret void

lpad7:                                            ; preds = %invoke.cont8, %entry
  %0 = landingpad { ptr, i32 }
          cleanup
  tail call void @_ZNSiD1Ev(ptr noundef nonnull align 8 dereferenceable(16) %yyin) #34
  resume { ptr, i32 } %0
}